target datalayout = "e-m:e-p270:32:32-p271:32:32-p272:64:64-i64:64-i128:128-f80:128-n8:16:32:64-S128"
target triple = "x86_64-pc-linux-gnu"

%struct.Abc_Obj_t_ = type { ptr, ptr, i32, i32, %struct.Vec_Int_t_, %struct.Vec_Int_t_, %union.anon, %union.anon.0 }
%struct.Vec_Int_t_ = type { i32, i32, ptr }
%union.anon = type { ptr }
%union.anon.0 = type { ptr }
%struct.Abc_Ntk_t_ = type { i32, i32, ptr, ptr, ptr, ptr, ptr, ptr, ptr, ptr, ptr, ptr, ptr, [11 x i32], i32, i32, i32, i32, ptr, i32, ptr, ptr, i32, i32, i32, double, i32, %struct.Vec_Int_t_, ptr, ptr, ptr, ptr, ptr, float, i32, ptr, ptr, ptr, ptr, ptr, ptr, ptr, ptr, ptr, ptr, ptr, ptr, ptr, ptr, ptr, ptr, ptr, ptr, ptr, ptr, ptr }
%struct.Vec_Ptr_t_ = type { i32, i32, ptr }

; Function Attrs: nounwind uwtable
define internal ptr @Vec_PtrEntry(ptr noundef %0, i32 noundef %1) #0 {
  %3 = alloca ptr, align 8
  %4 = alloca i32, align 4
  store ptr %0, ptr %3, align 8
  store i32 %1, ptr %4, align 4
  %5 = load ptr, ptr %3, align 8
  %6 = getelementptr inbounds %struct.Vec_Ptr_t_, ptr %5, i32 0, i32 2
  %7 = load ptr, ptr %6, align 8
  %8 = load i32, ptr %4, align 4
  %9 = sext i32 %8 to i64
  %10 = getelementptr inbounds ptr, ptr %7, i64 %9
  %11 = load ptr, ptr %10, align 8
  ret ptr %11
}

; Function Attrs: nounwind uwtable
define internal ptr @Abc_NtkObj(ptr noundef %0, i32 noundef %1) #0 {
  %3 = alloca ptr, align 8
  %4 = alloca i32, align 4
  store ptr %0, ptr %3, align 8
  store i32 %1, ptr %4, align 4
  %5 = load ptr, ptr %3, align 8
  %6 = getelementptr inbounds %struct.Abc_Ntk_t_, ptr %5, i32 0, i32 5
  %7 = load ptr, ptr %6, align 8
  %8 = load i32, ptr %4, align 4
  %9 = call ptr @Vec_PtrEntry(ptr noundef %7, i32 noundef %8)
  ret ptr %9
}

; Function Attrs: nounwind uwtable
define void @Abc_ObjRemoveFanins(ptr noundef %0) #0 {
  %2 = alloca ptr, align 8
  %3 = alloca ptr, align 8
  %4 = alloca ptr, align 8
  %5 = alloca i32, align 4
  store ptr %0, ptr %2, align 8
  %6 = load ptr, ptr %2, align 8
  %7 = getelementptr inbounds %struct.Abc_Obj_t_, ptr %6, i32 0, i32 4
  store ptr %7, ptr %3, align 8
  %8 = load ptr, ptr %3, align 8
  %9 = getelementptr inbounds %struct.Vec_Int_t_, ptr %8, i32 0, i32 1
  %10 = load i32, ptr %9, align 4
  %11 = sub nsw i32 %10, 1
  store i32 %11, ptr %5, align 4
  br label %12

12:                                               ; preds = %29, %1
  %13 = load i32, ptr %5, align 4
  %14 = icmp sge i32 %13, 0
  br i1 %14, label %15, label %32

15:                                               ; preds = %12
  %16 = load ptr, ptr %2, align 8
  %17 = getelementptr inbounds %struct.Abc_Obj_t_, ptr %16, i32 0, i32 0
  %18 = load ptr, ptr %17, align 8
  %19 = load ptr, ptr %3, align 8
  %20 = getelementptr inbounds %struct.Vec_Int_t_, ptr %19, i32 0, i32 2
  %21 = load ptr, ptr %20, align 8
  %22 = load i32, ptr %5, align 4
  %23 = sext i32 %22 to i64
  %24 = getelementptr inbounds i32, ptr %21, i64 %23
  %25 = load i32, ptr %24, align 4
  %26 = call ptr @Abc_NtkObj(ptr noundef %18, i32 noundef %25)
  store ptr %26, ptr %4, align 8
  %27 = load ptr, ptr %2, align 8
  %28 = load ptr, ptr %4, align 8
  call void @Abc_ObjDeleteFanin(ptr noundef %27, ptr noundef %28)
  br label %29

29:                                               ; preds = %15
  %30 = load i32, ptr %5, align 4
  %31 = add nsw i32 %30, -1
  store i32 %31, ptr %5, align 4
  br label %12, !llvm.loop !8

32:                                               ; preds = %12
  %33 = load ptr, ptr %2, align 8
  %34 = getelementptr inbounds %struct.Abc_Obj_t_, ptr %33, i32 0, i32 3
  %35 = load i32, ptr %34, align 4
  %36 = and i32 %35, -1025
  %37 = or i32 %36, 0
  store i32 %37, ptr %34, align 4
  %38 = load ptr, ptr %2, align 8
  %39 = getelementptr inbounds %struct.Abc_Obj_t_, ptr %38, i32 0, i32 3
  %40 = load i32, ptr %39, align 4
  %41 = and i32 %40, -2049
  %42 = or i32 %41, 0
  store i32 %42, ptr %39, align 4
  ret void
}