; Function Attrs: nofree nounwind uwtable
define void @Abc_ObjRemoveFanins(ptr noundef captures(none) %0) local_unnamed_addr #1 {
  %2 = getelementptr inbounds nuw i8, ptr %0, i64 28
  %3 = load i32, ptr %2, align 4
  %4 = icmp sgt i32 %3, 0
  br i1 %4, label %.lr.ph, label %._crit_edge

.lr.ph:                                           ; preds = %1
  %5 = getelementptr inbounds nuw i8, ptr %0, i64 32
  %6 = zext nneg i32 %3 to i64
  br label %7

7:                                                ; preds = %.lr.ph, %7
  %indvars.iv = phi i64 [ %6, %.lr.ph ], [ %indvars.iv.next, %7 ]
  %indvars.iv.next = add nsw i64 %indvars.iv, -1
  %8 = load ptr, ptr %0, align 8
  %9 = load ptr, ptr %5, align 8
  %10 = getelementptr inbounds nuw i32, ptr %9, i64 %indvars.iv.next
  %11 = load i32, ptr %10, align 4
  %12 = getelementptr i8, ptr %8, i64 32
  %.val = load ptr, ptr %12, align 8
  %13 = getelementptr i8, ptr %.val, i64 8
  %.val.val = load ptr, ptr %13, align 8
  %14 = sext i32 %11 to i64
  %15 = getelementptr inbounds ptr, ptr %.val.val, i64 %14
  %16 = load ptr, ptr %15, align 8
  tail call void @Abc_ObjDeleteFanin(ptr noundef nonnull %0, ptr noundef %16)
  %17 = icmp samesign ugt i64 %indvars.iv, 1
  br i1 %17, label %7, label %._crit_edge, !llvm.loop !8

._crit_edge:                                      ; preds = %7, %1
  %18 = getelementptr inbounds nuw i8, ptr %0, i64 20
  %19 = load i32, ptr %18, align 4
  %20 = and i32 %19, -3073
  store i32 %20, ptr %18, align 4
  ret void
}